(dp0
S'archive_id'
p1
S'24260450201603534483'
p2
sS'world_record'
p3
(dp4
S'name'
p5
S'\xe6\x88\x91\xe7\x9a\x84\xe4\xb8\x96\xe7\x95\x8c'
p6
sS'is_season_mod'
p7
I00
sS'resource_packs'
p8
(dp9
S'4638707615201061033'
p10
F1603509945.263086
ssS'mod_version'
p11
S''
p12
sS'item_id'
p13
S'-100'
p14
sS'addons'
p15
(dp16
S'10000001'
p17
F1601892617.372609
sss.